target datalayout = "e-m:e-p270:32:32-p271:32:32-p272:64:64-i64:64-i128:128-f80:128-n8:16:32:64-S128"
target triple = "x86_64-pc-linux-gnu"

%struct.pointf_s = type { double, double }
%struct.strview_t = type { ptr, i64 }
%struct.textspan_t = type { ptr, ptr, ptr, ptr, double, double, %struct.pointf_s, i8 }
%struct.textfont_t = type { ptr, ptr, ptr, double, i32 }
%struct.fontinfo = type { [3 x i8], ptr }

@Fontscale = internal global double 0.000000e+00, align 8
@picgen_msghdr = internal constant [17 x i8] c"dot pic plugin: \00", align 16
@pic_textspan.lastname = internal global ptr null, align 8
@pic_textspan.lastsize = internal global double 0.000000e+00, align 8
@.str.44 = private unnamed_addr constant [8 x i8] c".ft %s\0A\00", align 1
@.str.45 = private unnamed_addr constant [23 x i8] c".ps %.0f*\\n(SFu/%.0fu\0A\00", align 1
@.str.46 = private unnamed_addr constant [19 x i8] c"\22 at (%.5f,%.5f);\0A\00", align 1
@.str.47 = private unnamed_addr constant [28 x i8] c"%s%.*s is not a troff font\0A\00", align 1
@.str.48 = private unnamed_addr constant [2 x i8] c"R\00", align 1

; Function Attrs: inlinehint nounwind uwtable
define internal i32 @strview_cmp(ptr %0, i64 %1, ptr %2, i64 %3) #6 {
  %5 = alloca i32, align 4
  %6 = alloca %struct.strview_t, align 8
  %7 = alloca %struct.strview_t, align 8
  %8 = alloca i64, align 8
  %9 = alloca i32, align 4
  %10 = alloca i32, align 4
  %11 = getelementptr inbounds nuw { ptr, i64 }, ptr %6, i32 0, i32 0
  store ptr %0, ptr %11, align 8
  %12 = getelementptr inbounds nuw { ptr, i64 }, ptr %6, i32 0, i32 1
  store i64 %1, ptr %12, align 8
  %13 = getelementptr inbounds nuw { ptr, i64 }, ptr %7, i32 0, i32 0
  store ptr %2, ptr %13, align 8
  %14 = getelementptr inbounds nuw { ptr, i64 }, ptr %7, i32 0, i32 1
  store i64 %3, ptr %14, align 8
  call void @llvm.lifetime.start.p0(i64 8, ptr %8) #8
  %15 = getelementptr inbounds nuw %struct.strview_t, ptr %6, i32 0, i32 1
  %16 = load i64, ptr %15, align 8, !tbaa !72
  %17 = getelementptr inbounds nuw %struct.strview_t, ptr %7, i32 0, i32 1
  %18 = load i64, ptr %17, align 8, !tbaa !72
  %19 = icmp ugt i64 %16, %18
  br i1 %19, label %20, label %23

20:                                               ; preds = %4
  %21 = getelementptr inbounds nuw %struct.strview_t, ptr %7, i32 0, i32 1
  %22 = load i64, ptr %21, align 8, !tbaa !72
  br label %26

23:                                               ; preds = %4
  %24 = getelementptr inbounds nuw %struct.strview_t, ptr %6, i32 0, i32 1
  %25 = load i64, ptr %24, align 8, !tbaa !72
  br label %26

26:                                               ; preds = %23, %20
  %27 = phi i64 [ %22, %20 ], [ %25, %23 ]
  store i64 %27, ptr %8, align 8, !tbaa !63
  call void @llvm.lifetime.start.p0(i64 4, ptr %9) #8
  %28 = getelementptr inbounds nuw %struct.strview_t, ptr %6, i32 0, i32 0
  %29 = load ptr, ptr %28, align 8, !tbaa !74
  %30 = getelementptr inbounds nuw %struct.strview_t, ptr %7, i32 0, i32 0
  %31 = load ptr, ptr %30, align 8, !tbaa !74
  %32 = load i64, ptr %8, align 8, !tbaa !63
  %33 = call i32 @strncmp(ptr noundef %29, ptr noundef %31, i64 noundef %32) #9
  store i32 %33, ptr %9, align 4, !tbaa !39
  %34 = load i32, ptr %9, align 4, !tbaa !39
  %35 = icmp ne i32 %34, 0
  br i1 %35, label %36, label %38

36:                                               ; preds = %26
  %37 = load i32, ptr %9, align 4, !tbaa !39
  store i32 %37, ptr %5, align 4
  store i32 1, ptr %10, align 4
  br label %53

38:                                               ; preds = %26
  %39 = getelementptr inbounds nuw %struct.strview_t, ptr %6, i32 0, i32 1
  %40 = load i64, ptr %39, align 8, !tbaa !72
  %41 = getelementptr inbounds nuw %struct.strview_t, ptr %7, i32 0, i32 1
  %42 = load i64, ptr %41, align 8, !tbaa !72
  %43 = icmp ugt i64 %40, %42
  br i1 %43, label %44, label %45

44:                                               ; preds = %38
  store i32 1, ptr %5, align 4
  store i32 1, ptr %10, align 4
  br label %53

45:                                               ; preds = %38
  %46 = getelementptr inbounds nuw %struct.strview_t, ptr %6, i32 0, i32 1
  %47 = load i64, ptr %46, align 8, !tbaa !72
  %48 = getelementptr inbounds nuw %struct.strview_t, ptr %7, i32 0, i32 1
  %49 = load i64, ptr %48, align 8, !tbaa !72
  %50 = icmp ult i64 %47, %49
  br i1 %50, label %51, label %52

51:                                               ; preds = %45
  store i32 -1, ptr %5, align 4
  store i32 1, ptr %10, align 4
  br label %53

52:                                               ; preds = %45
  store i32 0, ptr %5, align 4
  store i32 1, ptr %10, align 4
  br label %53

53:                                               ; preds = %52, %51, %44, %36
  call void @llvm.lifetime.end.p0(i64 4, ptr %9) #8
  call void @llvm.lifetime.end.p0(i64 8, ptr %8) #8
  %54 = load i32, ptr %5, align 4
  ret i32 %54
}

; Function Attrs: inlinehint nounwind uwtable
define internal zeroext i1 @strview_eq(ptr %0, i64 %1, ptr %2, i64 %3) #6 {
  %5 = alloca %struct.strview_t, align 8
  %6 = alloca %struct.strview_t, align 8
  %7 = getelementptr inbounds nuw { ptr, i64 }, ptr %5, i32 0, i32 0
  store ptr %0, ptr %7, align 8
  %8 = getelementptr inbounds nuw { ptr, i64 }, ptr %5, i32 0, i32 1
  store i64 %1, ptr %8, align 8
  %9 = getelementptr inbounds nuw { ptr, i64 }, ptr %6, i32 0, i32 0
  store ptr %2, ptr %9, align 8
  %10 = getelementptr inbounds nuw { ptr, i64 }, ptr %6, i32 0, i32 1
  store i64 %3, ptr %10, align 8
  %11 = getelementptr inbounds nuw { ptr, i64 }, ptr %5, i32 0, i32 0
  %12 = load ptr, ptr %11, align 8
  %13 = getelementptr inbounds nuw { ptr, i64 }, ptr %5, i32 0, i32 1
  %14 = load i64, ptr %13, align 8
  %15 = getelementptr inbounds nuw { ptr, i64 }, ptr %6, i32 0, i32 0
  %16 = load ptr, ptr %15, align 8
  %17 = getelementptr inbounds nuw { ptr, i64 }, ptr %6, i32 0, i32 1
  %18 = load i64, ptr %17, align 8
  %19 = call i32 @strview_cmp(ptr %12, i64 %14, ptr %16, i64 %18)
  %20 = icmp eq i32 %19, 0
  ret i1 %20
}

; Function Attrs: inlinehint nounwind uwtable
define internal zeroext i1 @strview_str_eq(ptr %0, i64 %1, ptr noundef %2) #6 {
  %4 = alloca %struct.strview_t, align 8
  %5 = alloca ptr, align 8
  %6 = alloca %struct.strview_t, align 8
  %7 = getelementptr inbounds nuw { ptr, i64 }, ptr %4, i32 0, i32 0
  store ptr %0, ptr %7, align 8
  %8 = getelementptr inbounds nuw { ptr, i64 }, ptr %4, i32 0, i32 1
  store i64 %1, ptr %8, align 8
  store ptr %2, ptr %5, align 8, !tbaa !36
  %9 = load ptr, ptr %5, align 8, !tbaa !36
  %10 = call { ptr, i64 } @strview(ptr noundef %9, i8 noundef signext 0)
  %11 = getelementptr inbounds nuw { ptr, i64 }, ptr %6, i32 0, i32 0
  %12 = extractvalue { ptr, i64 } %10, 0
  store ptr %12, ptr %11, align 8
  %13 = getelementptr inbounds nuw { ptr, i64 }, ptr %6, i32 0, i32 1
  %14 = extractvalue { ptr, i64 } %10, 1
  store i64 %14, ptr %13, align 8
  %15 = getelementptr inbounds nuw { ptr, i64 }, ptr %4, i32 0, i32 0
  %16 = load ptr, ptr %15, align 8
  %17 = getelementptr inbounds nuw { ptr, i64 }, ptr %4, i32 0, i32 1
  %18 = load i64, ptr %17, align 8
  %19 = getelementptr inbounds nuw { ptr, i64 }, ptr %6, i32 0, i32 0
  %20 = load ptr, ptr %19, align 8
  %21 = getelementptr inbounds nuw { ptr, i64 }, ptr %6, i32 0, i32 1
  %22 = load i64, ptr %21, align 8
  %23 = call zeroext i1 @strview_eq(ptr %16, i64 %18, ptr %20, i64 %22)
  ret i1 %23
}

; Function Attrs: nounwind uwtable
define internal ptr @picfontname(ptr %0, i64 %1) #0 {
  %3 = alloca ptr, align 8
  %4 = alloca %struct.strview_t, align 8
  %5 = alloca i64, align 8
  %6 = alloca i32, align 4
  %7 = alloca ptr, align 8
  %8 = alloca %struct.strview_t, align 8
  %9 = getelementptr inbounds nuw { ptr, i64 }, ptr %4, i32 0, i32 0
  store ptr %0, ptr %9, align 8
  %10 = getelementptr inbounds nuw { ptr, i64 }, ptr %4, i32 0, i32 1
  store i64 %1, ptr %10, align 8
  call void @llvm.lifetime.start.p0(i64 8, ptr %5) #8
  store i64 0, ptr %5, align 8, !tbaa !63
  br label %11

11:                                               ; preds = %31, %2
  %12 = load i64, ptr %5, align 8, !tbaa !63
  %13 = icmp ult i64 %12, 33
  br i1 %13, label %15, label %14

14:                                               ; preds = %11
  store i32 2, ptr %6, align 4
  br label %34

15:                                               ; preds = %11
  %16 = load i64, ptr %5, align 8, !tbaa !63
  %17 = getelementptr inbounds nuw [33 x %struct.fontinfo], ptr @fonttab, i64 0, i64 %16
  %18 = getelementptr inbounds nuw %struct.fontinfo, ptr %17, i32 0, i32 1
  %19 = load ptr, ptr %18, align 8, !tbaa !69
  %20 = getelementptr inbounds nuw { ptr, i64 }, ptr %4, i32 0, i32 0
  %21 = load ptr, ptr %20, align 8
  %22 = getelementptr inbounds nuw { ptr, i64 }, ptr %4, i32 0, i32 1
  %23 = load i64, ptr %22, align 8
  %24 = call zeroext i1 @strview_str_eq(ptr %21, i64 %23, ptr noundef %19)
  br i1 %24, label %25, label %30

25:                                               ; preds = %15
  %26 = load i64, ptr %5, align 8, !tbaa !63
  %27 = getelementptr inbounds nuw [33 x %struct.fontinfo], ptr @fonttab, i64 0, i64 %26
  %28 = getelementptr inbounds nuw %struct.fontinfo, ptr %27, i32 0, i32 0
  %29 = getelementptr inbounds [3 x i8], ptr %28, i64 0, i64 0
  store ptr %29, ptr %3, align 8
  store i32 1, ptr %6, align 4
  br label %34

30:                                               ; preds = %15
  br label %31

31:                                               ; preds = %30
  %32 = load i64, ptr %5, align 8, !tbaa !63
  %33 = add i64 %32, 1
  store i64 %33, ptr %5, align 8, !tbaa !63
  br label %11, !llvm.loop !71

34:                                               ; preds = %25, %14
  call void @llvm.lifetime.end.p0(i64 8, ptr %5) #8
  %35 = load i32, ptr %6, align 4
  switch i32 %35, label %69 [
    i32 2, label %36
    i32 1, label %67
  ]

36:                                               ; preds = %34
  %37 = getelementptr inbounds nuw %struct.strview_t, ptr %4, i32 0, i32 1
  %38 = load i64, ptr %37, align 8, !tbaa !72
  %39 = trunc i64 %38 to i32
  %40 = getelementptr inbounds nuw %struct.strview_t, ptr %4, i32 0, i32 0
  %41 = load ptr, ptr %40, align 8, !tbaa !74
  call void (ptr, ...) @agerrorf(ptr noundef @.str.47, ptr noundef @picgen_msghdr, i32 noundef %39, ptr noundef %41)
  call void @llvm.lifetime.start.p0(i64 8, ptr %7) #8
  %42 = getelementptr inbounds nuw %struct.strview_t, ptr %4, i32 0, i32 0
  %43 = load ptr, ptr %42, align 8, !tbaa !74
  %44 = getelementptr inbounds nuw %struct.strview_t, ptr %4, i32 0, i32 1
  %45 = load i64, ptr %44, align 8, !tbaa !72
  %46 = call ptr @memrchr(ptr noundef %43, i32 noundef 45, i64 noundef %45)
  store ptr %46, ptr %7, align 8, !tbaa !36
  %47 = load ptr, ptr %7, align 8, !tbaa !36
  %48 = icmp ne ptr %47, null
  br i1 %48, label %49, label %65

49:                                               ; preds = %36
  call void @llvm.lifetime.start.p0(i64 16, ptr %8) #8
  %50 = getelementptr inbounds nuw %struct.strview_t, ptr %8, i32 0, i32 0
  %51 = getelementptr inbounds nuw %struct.strview_t, ptr %4, i32 0, i32 0
  %52 = load ptr, ptr %51, align 8, !tbaa !74
  store ptr %52, ptr %50, align 8, !tbaa !74
  %53 = getelementptr inbounds nuw %struct.strview_t, ptr %8, i32 0, i32 1
  %54 = load ptr, ptr %7, align 8, !tbaa !36
  %55 = getelementptr inbounds nuw %struct.strview_t, ptr %4, i32 0, i32 0
  %56 = load ptr, ptr %55, align 8, !tbaa !74
  %57 = ptrtoint ptr %54 to i64
  %58 = ptrtoint ptr %56 to i64
  %59 = sub i64 %57, %58
  store i64 %59, ptr %53, align 8, !tbaa !72
  %60 = getelementptr inbounds nuw { ptr, i64 }, ptr %8, i32 0, i32 0
  %61 = load ptr, ptr %60, align 8
  %62 = getelementptr inbounds nuw { ptr, i64 }, ptr %8, i32 0, i32 1
  %63 = load i64, ptr %62, align 8
  %64 = call ptr @picfontname(ptr %61, i64 %63)
  store ptr %64, ptr %3, align 8
  store i32 1, ptr %6, align 4
  call void @llvm.lifetime.end.p0(i64 16, ptr %8) #8
  br label %66

65:                                               ; preds = %36
  store ptr @.str.48, ptr %3, align 8
  store i32 1, ptr %6, align 4
  br label %66

66:                                               ; preds = %65, %49
  call void @llvm.lifetime.end.p0(i64 8, ptr %7) #8
  br label %67

67:                                               ; preds = %66, %34
  %68 = load ptr, ptr %3, align 8
  ret ptr %68

69:                                               ; preds = %34
  unreachable
}

; Function Attrs: inlinehint nounwind uwtable
define internal { ptr, i64 } @strview(ptr noundef %0, i8 noundef signext %1) #6 {
  %3 = alloca %struct.strview_t, align 8
  %4 = alloca ptr, align 8
  %5 = alloca i8, align 1
  %6 = alloca ptr, align 8
  %7 = alloca i32, align 4
  store ptr %0, ptr %4, align 8, !tbaa !36
  store i8 %1, ptr %5, align 1, !tbaa !37
  call void @llvm.lifetime.start.p0(i64 8, ptr %6) #8
  %8 = load ptr, ptr %4, align 8, !tbaa !36
  %9 = load i8, ptr %5, align 1, !tbaa !37
  %10 = sext i8 %9 to i32
  %11 = call ptr @strchr(ptr noundef %8, i32 noundef %10) #9
  store ptr %11, ptr %6, align 8, !tbaa !36
  %12 = load ptr, ptr %6, align 8, !tbaa !36
  %13 = icmp ne ptr %12, null
  br i1 %13, label %14, label %23

14:                                               ; preds = %2
  %15 = getelementptr inbounds nuw %struct.strview_t, ptr %3, i32 0, i32 0
  %16 = load ptr, ptr %4, align 8, !tbaa !36
  store ptr %16, ptr %15, align 8, !tbaa !74
  %17 = getelementptr inbounds nuw %struct.strview_t, ptr %3, i32 0, i32 1
  %18 = load ptr, ptr %6, align 8, !tbaa !36
  %19 = load ptr, ptr %4, align 8, !tbaa !36
  %20 = ptrtoint ptr %18 to i64
  %21 = ptrtoint ptr %19 to i64
  %22 = sub i64 %20, %21
  store i64 %22, ptr %17, align 8, !tbaa !72
  store i32 1, ptr %7, align 4
  br label %29

23:                                               ; preds = %2
  %24 = getelementptr inbounds nuw %struct.strview_t, ptr %3, i32 0, i32 0
  %25 = load ptr, ptr %4, align 8, !tbaa !36
  store ptr %25, ptr %24, align 8, !tbaa !74
  %26 = getelementptr inbounds nuw %struct.strview_t, ptr %3, i32 0, i32 1
  %27 = load ptr, ptr %4, align 8, !tbaa !36
  %28 = call i64 @strlen(ptr noundef %27) #9
  store i64 %28, ptr %26, align 8, !tbaa !72
  store i32 1, ptr %7, align 4
  br label %29

29:                                               ; preds = %23, %14
  call void @llvm.lifetime.end.p0(i64 8, ptr %6) #8
  %30 = load { ptr, i64 }, ptr %3, align 8
  ret { ptr, i64 } %30
}

; Function Attrs: nounwind uwtable
define internal void @pic_textspan(ptr noundef %0, double %1, double %2, ptr noundef %3) #0 {
  %5 = alloca %struct.pointf_s, align 8
  %6 = alloca ptr, align 8
  %7 = alloca ptr, align 8
  %8 = alloca %struct.strview_t, align 8
  %9 = alloca double, align 8
  %10 = getelementptr inbounds nuw { double, double }, ptr %5, i32 0, i32 0
  store double %1, ptr %10, align 8
  %11 = getelementptr inbounds nuw { double, double }, ptr %5, i32 0, i32 1
  store double %2, ptr %11, align 8
  store ptr %0, ptr %6, align 8, !tbaa !3
  store ptr %3, ptr %7, align 8, !tbaa !49
  %12 = load ptr, ptr %7, align 8, !tbaa !49
  %13 = getelementptr inbounds nuw %struct.textspan_t, ptr %12, i32 0, i32 7
  %14 = load i8, ptr %13, align 8, !tbaa !50
  %15 = sext i8 %14 to i32
  switch i32 %15, label %24 [
    i32 108, label %34
    i32 114, label %16
    i32 110, label %25
  ]

16:                                               ; preds = %4
  %17 = load ptr, ptr %7, align 8, !tbaa !49
  %18 = getelementptr inbounds nuw %struct.textspan_t, ptr %17, i32 0, i32 6
  %19 = getelementptr inbounds nuw %struct.pointf_s, ptr %18, i32 0, i32 0
  %20 = load double, ptr %19, align 8, !tbaa !52
  %21 = getelementptr inbounds nuw %struct.pointf_s, ptr %5, i32 0, i32 0
  %22 = load double, ptr %21, align 8, !tbaa !53
  %23 = fsub double %22, %20
  store double %23, ptr %21, align 8, !tbaa !53
  br label %34

24:                                               ; preds = %4
  br label %25

25:                                               ; preds = %4, %24
  %26 = load ptr, ptr %7, align 8, !tbaa !49
  %27 = getelementptr inbounds nuw %struct.textspan_t, ptr %26, i32 0, i32 6
  %28 = getelementptr inbounds nuw %struct.pointf_s, ptr %27, i32 0, i32 0
  %29 = load double, ptr %28, align 8, !tbaa !52
  %30 = fdiv double %29, 2.000000e+00
  %31 = getelementptr inbounds nuw %struct.pointf_s, ptr %5, i32 0, i32 0
  %32 = load double, ptr %31, align 8, !tbaa !53
  %33 = fsub double %32, %30
  store double %33, ptr %31, align 8, !tbaa !53
  br label %34

34:                                               ; preds = %25, %16, %4
  %35 = load ptr, ptr %7, align 8, !tbaa !49
  %36 = getelementptr inbounds nuw %struct.textspan_t, ptr %35, i32 0, i32 1
  %37 = load ptr, ptr %36, align 8, !tbaa !54
  %38 = getelementptr inbounds nuw %struct.textfont_t, ptr %37, i32 0, i32 3
  %39 = load double, ptr %38, align 8, !tbaa !55
  %40 = fdiv double %39, 2.160000e+02
  %41 = getelementptr inbounds nuw %struct.pointf_s, ptr %5, i32 0, i32 1
  %42 = load double, ptr %41, align 8, !tbaa !58
  %43 = fadd double %42, %40
  store double %43, ptr %41, align 8, !tbaa !58
  %44 = load ptr, ptr %7, align 8, !tbaa !49
  %45 = getelementptr inbounds nuw %struct.textspan_t, ptr %44, i32 0, i32 6
  %46 = getelementptr inbounds nuw %struct.pointf_s, ptr %45, i32 0, i32 0
  %47 = load double, ptr %46, align 8, !tbaa !52
  %48 = fdiv double %47, 1.440000e+02
  %49 = getelementptr inbounds nuw %struct.pointf_s, ptr %5, i32 0, i32 0
  %50 = load double, ptr %49, align 8, !tbaa !53
  %51 = fadd double %50, %48
  store double %51, ptr %49, align 8, !tbaa !53
  %52 = load ptr, ptr %7, align 8, !tbaa !49
  %53 = getelementptr inbounds nuw %struct.textspan_t, ptr %52, i32 0, i32 1
  %54 = load ptr, ptr %53, align 8, !tbaa !54
  %55 = getelementptr inbounds nuw %struct.textfont_t, ptr %54, i32 0, i32 0
  %56 = load ptr, ptr %55, align 8, !tbaa !59
  %57 = icmp ne ptr %56, null
  br i1 %57, label %58, label %92

58:                                               ; preds = %34
  %59 = load ptr, ptr @pic_textspan.lastname, align 8, !tbaa !36
  %60 = icmp ne ptr %59, null
  br i1 %60, label %61, label %70

61:                                               ; preds = %58
  %62 = load ptr, ptr @pic_textspan.lastname, align 8, !tbaa !36
  %63 = load ptr, ptr %7, align 8, !tbaa !49
  %64 = getelementptr inbounds nuw %struct.textspan_t, ptr %63, i32 0, i32 1
  %65 = load ptr, ptr %64, align 8, !tbaa !54
  %66 = getelementptr inbounds nuw %struct.textfont_t, ptr %65, i32 0, i32 0
  %67 = load ptr, ptr %66, align 8, !tbaa !59
  %68 = call i32 @strcmp(ptr noundef %62, ptr noundef %67) #9
  %69 = icmp ne i32 %68, 0
  br i1 %69, label %70, label %92

70:                                               ; preds = %61, %58
  %71 = load ptr, ptr %6, align 8, !tbaa !3
  %72 = load ptr, ptr %7, align 8, !tbaa !49
  %73 = getelementptr inbounds nuw %struct.textspan_t, ptr %72, i32 0, i32 1
  %74 = load ptr, ptr %73, align 8, !tbaa !54
  %75 = getelementptr inbounds nuw %struct.textfont_t, ptr %74, i32 0, i32 0
  %76 = load ptr, ptr %75, align 8, !tbaa !59
  %77 = call { ptr, i64 } @strview(ptr noundef %76, i8 noundef signext 0)
  %78 = getelementptr inbounds nuw { ptr, i64 }, ptr %8, i32 0, i32 0
  %79 = extractvalue { ptr, i64 } %77, 0
  store ptr %79, ptr %78, align 8
  %80 = getelementptr inbounds nuw { ptr, i64 }, ptr %8, i32 0, i32 1
  %81 = extractvalue { ptr, i64 } %77, 1
  store i64 %81, ptr %80, align 8
  %82 = getelementptr inbounds nuw { ptr, i64 }, ptr %8, i32 0, i32 0
  %83 = load ptr, ptr %82, align 8
  %84 = getelementptr inbounds nuw { ptr, i64 }, ptr %8, i32 0, i32 1
  %85 = load i64, ptr %84, align 8
  %86 = call ptr @picfontname(ptr %83, i64 %85)
  call void (ptr, ptr, ...) @gvprintf(ptr noundef %71, ptr noundef @.str.44, ptr noundef %86)
  %87 = load ptr, ptr %7, align 8, !tbaa !49
  %88 = getelementptr inbounds nuw %struct.textspan_t, ptr %87, i32 0, i32 1
  %89 = load ptr, ptr %88, align 8, !tbaa !54
  %90 = getelementptr inbounds nuw %struct.textfont_t, ptr %89, i32 0, i32 0
  %91 = load ptr, ptr %90, align 8, !tbaa !59
  store ptr %91, ptr @pic_textspan.lastname, align 8, !tbaa !36
  br label %92

92:                                               ; preds = %70, %61, %34
  call void @llvm.lifetime.start.p0(i64 8, ptr %9) #8
  %93 = load ptr, ptr %7, align 8, !tbaa !49
  %94 = getelementptr inbounds nuw %struct.textspan_t, ptr %93, i32 0, i32 1
  %95 = load ptr, ptr %94, align 8, !tbaa !54
  %96 = getelementptr inbounds nuw %struct.textfont_t, ptr %95, i32 0, i32 3
  %97 = load double, ptr %96, align 8, !tbaa !55
  %98 = call double @llvm.maxnum.f64(double %97, double 1.000000e+00)
  store double %98, ptr %9, align 8, !tbaa !46
  %99 = load double, ptr %9, align 8, !tbaa !46
  %100 = load double, ptr @pic_textspan.lastsize, align 8, !tbaa !46
  %101 = fsub double %99, %100
  %102 = call double @llvm.fabs.f64(double %101)
  %103 = fcmp ogt double %102, 5.000000e-01
  br i1 %103, label %104, label %109

104:                                              ; preds = %92
  %105 = load ptr, ptr %6, align 8, !tbaa !3
  %106 = load double, ptr %9, align 8, !tbaa !46
  %107 = load double, ptr @Fontscale, align 8, !tbaa !46
  call void (ptr, ptr, ...) @gvprintf(ptr noundef %105, ptr noundef @.str.45, double noundef %106, double noundef %107)
  %108 = load double, ptr %9, align 8, !tbaa !46
  store double %108, ptr @pic_textspan.lastsize, align 8, !tbaa !46
  br label %109

109:                                              ; preds = %104, %92
  %110 = load ptr, ptr %6, align 8, !tbaa !3
  %111 = call i32 @gvputc(ptr noundef %110, i32 noundef 34)
  %112 = load ptr, ptr %6, align 8, !tbaa !3
  %113 = load ptr, ptr %7, align 8, !tbaa !49
  %114 = getelementptr inbounds nuw %struct.textspan_t, ptr %113, i32 0, i32 0
  %115 = load ptr, ptr %114, align 8, !tbaa !60
  call void @gvputs_nonascii(ptr noundef %112, ptr noundef %115)
  %116 = load ptr, ptr %6, align 8, !tbaa !3
  %117 = getelementptr inbounds nuw %struct.pointf_s, ptr %5, i32 0, i32 0
  %118 = load double, ptr %117, align 8, !tbaa !53
  %119 = getelementptr inbounds nuw %struct.pointf_s, ptr %5, i32 0, i32 1
  %120 = load double, ptr %119, align 8, !tbaa !58
  call void (ptr, ptr, ...) @gvprintf(ptr noundef %116, ptr noundef @.str.46, double noundef %118, double noundef %120)
  call void @llvm.lifetime.end.p0(i64 8, ptr %9) #8
  ret void
}