; Function Attrs: nounwind uwtable
define internal void @pic_textspan(ptr noundef %0, double %1, double %2, ptr noundef readonly captures(none) %3) #0 {
  %5 = getelementptr inbounds nuw i8, ptr %3, i64 64
  %6 = load i8, ptr %5, align 8, !tbaa !39
  %7 = getelementptr inbounds nuw i8, ptr %3, i64 48
  %8 = load double, ptr %7, align 8, !tbaa !41
  switch i8 %6, label %11 [
    i8 108, label %._crit_edge
    i8 114, label %9
  ]

9:                                                ; preds = %4
  %10 = fsub double %1, %8
  br label %._crit_edge

11:                                               ; preds = %4
  %12 = fmul double %8, 5.000000e-01
  %13 = fsub double %1, %12
  br label %._crit_edge

._crit_edge:                                      ; preds = %4, %11, %9
  %.sroa.019.0 = phi double [ %13, %11 ], [ %10, %9 ], [ %1, %4 ]
  %14 = getelementptr inbounds nuw i8, ptr %3, i64 8
  %15 = load ptr, ptr %14, align 8, !tbaa !42
  %16 = getelementptr inbounds nuw i8, ptr %15, i64 24
  %17 = load double, ptr %16, align 8, !tbaa !43
  %18 = load ptr, ptr %15, align 8, !tbaa !46
  %.not = icmp eq ptr %18, null
  br i1 %.not, label %42, label %19

19:                                               ; preds = %._crit_edge
  %20 = load ptr, ptr @pic_textspan.lastname, align 8, !tbaa !34
  %.not25 = icmp eq ptr %20, null
  br i1 %.not25, label %23, label %21

21:                                               ; preds = %19
  %22 = tail call i32 @strcmp(ptr noundef nonnull dereferenceable(1) %20, ptr noundef nonnull dereferenceable(1) %18) #9
  %.not26 = icmp eq i32 %22, 0
  br i1 %.not26, label %42, label %23

23:                                               ; preds = %21, %19
  %strlen.i = tail call i64 @strlen(ptr nonnull dereferenceable(1) %18)
  %24 = ptrtoint ptr %18 to i64
  br label %tailrecurse.i

tailrecurse.i:                                    ; preds = %37, %23
  %.tr21.i = phi i64 [ %strlen.i, %23 ], [ %39, %37 ]
  br label %27

25:                                               ; preds = %27
  %26 = add nuw nsw i64 %.01423.i, 1
  %exitcond.not.i = icmp eq i64 %26, 33
  br i1 %exitcond.not.i, label %34, label %27, !llvm.loop !47

27:                                               ; preds = %25, %tailrecurse.i
  %.01423.i = phi i64 [ 0, %tailrecurse.i ], [ %26, %25 ]
  %28 = getelementptr inbounds nuw [33 x %struct.fontinfo], ptr @fonttab, i64 0, i64 %.01423.i
  %29 = getelementptr inbounds nuw i8, ptr %28, i64 8
  %30 = load ptr, ptr %29, align 8, !tbaa !49
  %strlen.i.i.i = tail call i64 @strlen(ptr nonnull readonly dereferenceable(1) %30)
  %31 = tail call i64 @llvm.umin.i64(i64 %.tr21.i, i64 %strlen.i.i.i)
  %32 = tail call i32 @strncmp(ptr noundef nonnull readonly %18, ptr noundef nonnull readonly %30, i64 noundef %31) #9
  %.not.i.i.i.i = icmp eq i32 %32, 0
  %33 = icmp eq i64 %.tr21.i, %strlen.i.i.i
  %spec.select.i.i.i = and i1 %33, %.not.i.i.i.i
  br i1 %spec.select.i.i.i, label %picfontname.exit, label %25

34:                                               ; preds = %25
  %35 = trunc i64 %.tr21.i to i32
  tail call void (ptr, ...) @agerrorf(ptr noundef nonnull @.str.47, ptr noundef nonnull @picgen_msghdr, i32 noundef %35, ptr noundef nonnull %18) #8
  %36 = tail call ptr @memrchr(ptr noundef nonnull %18, i32 noundef 45, i64 noundef %.tr21.i)
  %.not.i = icmp eq ptr %36, null
  br i1 %.not.i, label %picfontname.exit, label %37

37:                                               ; preds = %34
  %38 = ptrtoint ptr %36 to i64
  %39 = sub i64 %38, %24
  br label %tailrecurse.i

picfontname.exit:                                 ; preds = %34, %27
  %.1.i = phi ptr [ %28, %27 ], [ @.str.48, %34 ]
  tail call void (ptr, ptr, ...) @gvprintf(ptr noundef %0, ptr noundef nonnull @.str.44, ptr noundef nonnull %.1.i) #8
  %40 = load ptr, ptr %14, align 8, !tbaa !42
  %41 = load ptr, ptr %40, align 8, !tbaa !46
  store ptr %41, ptr @pic_textspan.lastname, align 8, !tbaa !34
  %.phi.trans.insert31 = getelementptr inbounds nuw i8, ptr %40, i64 24
  %.pre32 = load double, ptr %.phi.trans.insert31, align 8, !tbaa !43
  br label %42

42:                                               ; preds = %picfontname.exit, %21, %._crit_edge
  %43 = phi double [ %.pre32, %picfontname.exit ], [ %17, %21 ], [ %17, %._crit_edge ]
  %44 = tail call double @llvm.maxnum.f64(double %43, double 1.000000e+00)
  %45 = load double, ptr @pic_textspan.lastsize, align 8, !tbaa !38
  %46 = fsub double %44, %45
  %47 = tail call double @llvm.fabs.f64(double %46)
  %48 = fcmp ogt double %47, 5.000000e-01
  br i1 %48, label %49, label %51

49:                                               ; preds = %42
  %50 = load double, ptr @Fontscale, align 8, !tbaa !38
  tail call void (ptr, ptr, ...) @gvprintf(ptr noundef %0, ptr noundef nonnull @.str.45, double noundef %44, double noundef %50) #8
  store double %44, ptr @pic_textspan.lastsize, align 8, !tbaa !38
  br label %51

51:                                               ; preds = %49, %42
  %52 = fdiv double %8, 1.440000e+02
  %53 = fadd double %.sroa.019.0, %52
  %54 = fdiv double %17, 2.160000e+02
  %55 = fadd double %2, %54
  %56 = tail call i32 @gvputc(ptr noundef %0, i32 noundef 34) #8
  %57 = load ptr, ptr %3, align 8, !tbaa !51
  tail call void @gvputs_nonascii(ptr noundef %0, ptr noundef %57) #8
  tail call void (ptr, ptr, ...) @gvprintf(ptr noundef %0, ptr noundef nonnull @.str.46, double noundef %53, double noundef %55) #8
  ret void
}